target datalayout = "e-m:e-p270:32:32-p271:32:32-p272:64:64-i64:64-i128:128-f80:128-n8:16:32:64-S128"
target triple = "x86_64-pc-linux-gnu"

%struct.FFIIRFilterCoeffs = type { i32, float, ptr, ptr }

; Function Attrs: cold nounwind optsize uwtable
define void @ff_iir_filter_free_coeffsp(ptr noundef %0) #0 {
  %2 = alloca ptr, align 8
  %3 = alloca ptr, align 8
  store ptr %0, ptr %2, align 8, !tbaa !29
  call void @llvm.lifetime.start.p0(i64 8, ptr %3) #5
  %4 = load ptr, ptr %2, align 8, !tbaa !29
  %5 = load ptr, ptr %4, align 8, !tbaa !12
  store ptr %5, ptr %3, align 8, !tbaa !12
  %6 = load ptr, ptr %3, align 8, !tbaa !12
  %7 = icmp ne ptr %6, null
  br i1 %7, label %8, label %13

8:                                                ; preds = %1
  %9 = load ptr, ptr %3, align 8, !tbaa !12
  %10 = getelementptr inbounds nuw %struct.FFIIRFilterCoeffs, ptr %9, i32 0, i32 2
  call void @av_freep(ptr noundef %10)
  %11 = load ptr, ptr %3, align 8, !tbaa !12
  %12 = getelementptr inbounds nuw %struct.FFIIRFilterCoeffs, ptr %11, i32 0, i32 3
  call void @av_freep(ptr noundef %12)
  br label %13

13:                                               ; preds = %8, %1
  %14 = load ptr, ptr %2, align 8, !tbaa !29
  call void @av_freep(ptr noundef %14)
  call void @llvm.lifetime.end.p0(i64 8, ptr %3) #5
  ret void
}