; Function Attrs: cold nounwind optsize uwtable
define void @ff_iir_filter_free_coeffsp(ptr noundef %0) local_unnamed_addr #0 {
  %2 = load ptr, ptr %0, align 8, !tbaa !4
  %.not = icmp eq ptr %2, null
  br i1 %.not, label %6, label %3

3:                                                ; preds = %1
  %4 = getelementptr inbounds nuw i8, ptr %2, i64 8
  tail call void @av_freep(ptr noundef nonnull %4) #9
  %5 = getelementptr inbounds nuw i8, ptr %2, i64 16
  tail call void @av_freep(ptr noundef nonnull %5) #9
  br label %6

6:                                                ; preds = %3, %1
  tail call void @av_freep(ptr noundef nonnull %0) #9
  ret void
}